target datalayout = "e-m:e-p270:32:32-p271:32:32-p272:64:64-i64:64-i128:128-f80:128-n8:16:32:64-S128"
target triple = "x86_64-pc-linux-gnu"

%struct.LexState = type { ptr, ptr, %union.TValue, %union.TValue, ptr, ptr, i32, i32, i32, %struct.SBuf, ptr, ptr, i32, i32, ptr, ptr, ptr, ptr, i32, i32, ptr, i32, i32, i32, i32 }
%union.TValue = type { i64 }
%struct.SBuf = type { ptr, ptr, ptr, %struct.MRef }
%struct.MRef = type { i64 }
%struct.FuncState = type { ptr, ptr, ptr, ptr, ptr, i32, i32, i32, i32, i32, i32, i32, i32, ptr, i32, i32, i8, i8, i8, i8, [200 x i16], [60 x i16], [60 x i16] }
%struct.BCInsLine = type { i32, i32 }

@.str.1 = private unnamed_addr constant [22 x i8] c"bytecode instructions\00", align 1

; Function Attrs: nounwind uwtable
define internal void @jmp_patchins(ptr noundef %0, i32 noundef %1, i32 noundef %2) #0 {
  %4 = alloca ptr, align 8
  %5 = alloca i32, align 4
  %6 = alloca i32, align 4
  %7 = alloca ptr, align 8
  %8 = alloca i32, align 4
  store ptr %0, ptr %4, align 8, !tbaa !62
  store i32 %1, ptr %5, align 4, !tbaa !79
  store i32 %2, ptr %6, align 4, !tbaa !79
  call void @llvm.lifetime.start.p0(i64 8, ptr %7) #11
  %9 = load ptr, ptr %4, align 8, !tbaa !62
  %10 = getelementptr inbounds nuw %struct.FuncState, ptr %9, i32 0, i32 13
  %11 = load ptr, ptr %10, align 8, !tbaa !55
  %12 = load i32, ptr %5, align 4, !tbaa !79
  %13 = zext i32 %12 to i64
  %14 = getelementptr inbounds nuw %struct.BCInsLine, ptr %11, i64 %13
  %15 = getelementptr inbounds nuw %struct.BCInsLine, ptr %14, i32 0, i32 0
  store ptr %15, ptr %7, align 8, !tbaa !108
  call void @llvm.lifetime.start.p0(i64 4, ptr %8) #11
  %16 = load i32, ptr %6, align 4, !tbaa !79
  %17 = load i32, ptr %5, align 4, !tbaa !79
  %18 = add i32 %17, 1
  %19 = sub i32 %16, %18
  %20 = add i32 %19, 32768
  store i32 %20, ptr %8, align 4, !tbaa !79
  %21 = load i32, ptr %8, align 4, !tbaa !79
  %22 = icmp ugt i32 %21, 65535
  br i1 %22, label %23, label %27

23:                                               ; preds = %3
  %24 = load ptr, ptr %4, align 8, !tbaa !62
  %25 = getelementptr inbounds nuw %struct.FuncState, ptr %24, i32 0, i32 1
  %26 = load ptr, ptr %25, align 8, !tbaa !64
  call void @err_syntax(ptr noundef %26, i32 noundef 2399) #13
  unreachable

27:                                               ; preds = %3
  %28 = load i32, ptr %8, align 4, !tbaa !79
  %29 = trunc i32 %28 to i16
  %30 = load ptr, ptr %7, align 8, !tbaa !108
  %31 = getelementptr inbounds i16, ptr %30, i64 1
  store i16 %29, ptr %31, align 2, !tbaa !110
  call void @llvm.lifetime.end.p0(i64 4, ptr %8) #11
  call void @llvm.lifetime.end.p0(i64 8, ptr %7) #11
  ret void
}

; Function Attrs: nounwind uwtable
define internal i32 @jmp_patchtestreg(ptr noundef %0, i32 noundef %1, i32 noundef %2) #0 {
  %4 = alloca i32, align 4
  %5 = alloca ptr, align 8
  %6 = alloca i32, align 4
  %7 = alloca i32, align 4
  %8 = alloca ptr, align 8
  %9 = alloca i32, align 4
  %10 = alloca i32, align 4
  store ptr %0, ptr %5, align 8, !tbaa !62
  store i32 %1, ptr %6, align 4, !tbaa !79
  store i32 %2, ptr %7, align 4, !tbaa !79
  call void @llvm.lifetime.start.p0(i64 8, ptr %8) #11
  %11 = load ptr, ptr %5, align 8, !tbaa !62
  %12 = getelementptr inbounds nuw %struct.FuncState, ptr %11, i32 0, i32 13
  %13 = load ptr, ptr %12, align 8, !tbaa !55
  %14 = load i32, ptr %6, align 4, !tbaa !79
  %15 = icmp uge i32 %14, 1
  br i1 %15, label %16, label %19

16:                                               ; preds = %3
  %17 = load i32, ptr %6, align 4, !tbaa !79
  %18 = sub i32 %17, 1
  br label %21

19:                                               ; preds = %3
  %20 = load i32, ptr %6, align 4, !tbaa !79
  br label %21

21:                                               ; preds = %19, %16
  %22 = phi i32 [ %18, %16 ], [ %20, %19 ]
  %23 = zext i32 %22 to i64
  %24 = getelementptr inbounds nuw %struct.BCInsLine, ptr %13, i64 %23
  store ptr %24, ptr %8, align 8, !tbaa !107
  call void @llvm.lifetime.start.p0(i64 4, ptr %9) #11
  %25 = load ptr, ptr %8, align 8, !tbaa !107
  %26 = getelementptr inbounds nuw %struct.BCInsLine, ptr %25, i32 0, i32 0
  %27 = load i32, ptr %26, align 4, !tbaa !87
  %28 = and i32 %27, 255
  store i32 %28, ptr %9, align 4, !tbaa !79
  %29 = load i32, ptr %9, align 4, !tbaa !79
  %30 = icmp eq i32 %29, 12
  br i1 %30, label %34, label %31

31:                                               ; preds = %21
  %32 = load i32, ptr %9, align 4, !tbaa !79
  %33 = icmp eq i32 %32, 13
  br i1 %33, label %34, label %61

34:                                               ; preds = %31, %21
  %35 = load i32, ptr %7, align 4, !tbaa !79
  %36 = icmp ne i32 %35, 255
  br i1 %36, label %37, label %50

37:                                               ; preds = %34
  %38 = load i32, ptr %7, align 4, !tbaa !79
  %39 = load ptr, ptr %8, align 8, !tbaa !107
  %40 = getelementptr inbounds nuw %struct.BCInsLine, ptr %39, i32 0, i32 0
  %41 = load i32, ptr %40, align 4, !tbaa !87
  %42 = lshr i32 %41, 16
  %43 = icmp ne i32 %38, %42
  br i1 %43, label %44, label %50

44:                                               ; preds = %37
  %45 = load i32, ptr %7, align 4, !tbaa !79
  %46 = trunc i32 %45 to i8
  %47 = load ptr, ptr %8, align 8, !tbaa !107
  %48 = getelementptr inbounds nuw %struct.BCInsLine, ptr %47, i32 0, i32 0
  %49 = getelementptr inbounds i8, ptr %48, i64 1
  store i8 %46, ptr %49, align 1, !tbaa !32
  br label %60

50:                                               ; preds = %37, %34
  %51 = load i32, ptr %9, align 4, !tbaa !79
  %52 = add i32 %51, 2
  %53 = trunc i32 %52 to i8
  %54 = load ptr, ptr %8, align 8, !tbaa !107
  %55 = getelementptr inbounds nuw %struct.BCInsLine, ptr %54, i32 0, i32 0
  %56 = getelementptr inbounds i8, ptr %55, i64 0
  store i8 %53, ptr %56, align 4, !tbaa !32
  %57 = load ptr, ptr %8, align 8, !tbaa !107
  %58 = getelementptr inbounds nuw %struct.BCInsLine, ptr %57, i32 0, i32 0
  %59 = getelementptr inbounds i8, ptr %58, i64 1
  store i8 0, ptr %59, align 1, !tbaa !32
  br label %60

60:                                               ; preds = %50, %44
  br label %113

61:                                               ; preds = %31
  %62 = load ptr, ptr %8, align 8, !tbaa !107
  %63 = getelementptr inbounds nuw %struct.BCInsLine, ptr %62, i32 0, i32 0
  %64 = load i32, ptr %63, align 4, !tbaa !87
  %65 = lshr i32 %64, 8
  %66 = and i32 %65, 255
  %67 = icmp eq i32 %66, 255
  br i1 %67, label %68, label %111

68:                                               ; preds = %61
  %69 = load i32, ptr %7, align 4, !tbaa !79
  %70 = icmp eq i32 %69, 255
  br i1 %70, label %71, label %87

71:                                               ; preds = %68
  %72 = load ptr, ptr %5, align 8, !tbaa !62
  %73 = getelementptr inbounds nuw %struct.FuncState, ptr %72, i32 0, i32 13
  %74 = load ptr, ptr %73, align 8, !tbaa !55
  %75 = load i32, ptr %6, align 4, !tbaa !79
  %76 = zext i32 %75 to i64
  %77 = getelementptr inbounds nuw %struct.BCInsLine, ptr %74, i64 %76
  %78 = getelementptr inbounds nuw %struct.BCInsLine, ptr %77, i32 0, i32 0
  %79 = load i32, ptr %78, align 4, !tbaa !87
  %80 = lshr i32 %79, 8
  %81 = and i32 %80, 255
  %82 = shl i32 %81, 8
  %83 = or i32 88, %82
  %84 = or i32 %83, -2147483648
  %85 = load ptr, ptr %8, align 8, !tbaa !107
  %86 = getelementptr inbounds nuw %struct.BCInsLine, ptr %85, i32 0, i32 0
  store i32 %84, ptr %86, align 4, !tbaa !87
  br label %110

87:                                               ; preds = %68
  %88 = load i32, ptr %7, align 4, !tbaa !79
  %89 = trunc i32 %88 to i8
  %90 = load ptr, ptr %8, align 8, !tbaa !107
  %91 = getelementptr inbounds nuw %struct.BCInsLine, ptr %90, i32 0, i32 0
  %92 = getelementptr inbounds i8, ptr %91, i64 1
  store i8 %89, ptr %92, align 1, !tbaa !32
  %93 = load i32, ptr %7, align 4, !tbaa !79
  %94 = load ptr, ptr %8, align 8, !tbaa !107
  %95 = getelementptr inbounds %struct.BCInsLine, ptr %94, i64 1
  %96 = getelementptr inbounds nuw %struct.BCInsLine, ptr %95, i32 0, i32 0
  %97 = load i32, ptr %96, align 4, !tbaa !87
  %98 = lshr i32 %97, 8
  %99 = and i32 %98, 255
  %100 = icmp uge i32 %93, %99
  br i1 %100, label %101, label %109

101:                                              ; preds = %87
  %102 = load i32, ptr %7, align 4, !tbaa !79
  %103 = add i32 %102, 1
  %104 = trunc i32 %103 to i8
  %105 = load ptr, ptr %8, align 8, !tbaa !107
  %106 = getelementptr inbounds %struct.BCInsLine, ptr %105, i64 1
  %107 = getelementptr inbounds nuw %struct.BCInsLine, ptr %106, i32 0, i32 0
  %108 = getelementptr inbounds i8, ptr %107, i64 1
  store i8 %104, ptr %108, align 1, !tbaa !32
  br label %109

109:                                              ; preds = %101, %87
  br label %110

110:                                              ; preds = %109, %71
  br label %112

111:                                              ; preds = %61
  store i32 0, ptr %4, align 4
  store i32 1, ptr %10, align 4
  br label %114

112:                                              ; preds = %110
  br label %113

113:                                              ; preds = %112, %60
  store i32 1, ptr %4, align 4
  store i32 1, ptr %10, align 4
  br label %114

114:                                              ; preds = %113, %111
  call void @llvm.lifetime.end.p0(i64 4, ptr %9) #11
  call void @llvm.lifetime.end.p0(i64 8, ptr %8) #11
  %115 = load i32, ptr %4, align 4
  ret i32 %115
}

; Function Attrs: nounwind uwtable
define internal i32 @jmp_next(ptr noundef %0, i32 noundef %1) #0 {
  %3 = alloca i32, align 4
  %4 = alloca ptr, align 8
  %5 = alloca i32, align 4
  %6 = alloca i64, align 8
  %7 = alloca i32, align 4
  store ptr %0, ptr %4, align 8, !tbaa !62
  store i32 %1, ptr %5, align 4, !tbaa !79
  call void @llvm.lifetime.start.p0(i64 8, ptr %6) #11
  %8 = load ptr, ptr %4, align 8, !tbaa !62
  %9 = getelementptr inbounds nuw %struct.FuncState, ptr %8, i32 0, i32 13
  %10 = load ptr, ptr %9, align 8, !tbaa !55
  %11 = load i32, ptr %5, align 4, !tbaa !79
  %12 = zext i32 %11 to i64
  %13 = getelementptr inbounds nuw %struct.BCInsLine, ptr %10, i64 %12
  %14 = getelementptr inbounds nuw %struct.BCInsLine, ptr %13, i32 0, i32 0
  %15 = load i32, ptr %14, align 4, !tbaa !87
  %16 = lshr i32 %15, 16
  %17 = zext i32 %16 to i64
  %18 = sub nsw i64 %17, 32768
  store i64 %18, ptr %6, align 8, !tbaa !11
  %19 = load i64, ptr %6, align 8, !tbaa !11
  %20 = trunc i64 %19 to i32
  %21 = icmp eq i32 %20, -1
  br i1 %21, label %22, label %23

22:                                               ; preds = %2
  store i32 -1, ptr %3, align 4
  store i32 1, ptr %7, align 4
  br label %30

23:                                               ; preds = %2
  %24 = load i32, ptr %5, align 4, !tbaa !79
  %25 = zext i32 %24 to i64
  %26 = add nsw i64 %25, 1
  %27 = load i64, ptr %6, align 8, !tbaa !11
  %28 = add nsw i64 %26, %27
  %29 = trunc i64 %28 to i32
  store i32 %29, ptr %3, align 4
  store i32 1, ptr %7, align 4
  br label %30

30:                                               ; preds = %23, %22
  call void @llvm.lifetime.end.p0(i64 8, ptr %6) #11
  %31 = load i32, ptr %3, align 4
  ret i32 %31
}

; Function Attrs: nounwind uwtable
define internal void @jmp_patchval(ptr noundef %0, i32 noundef %1, i32 noundef %2, i32 noundef %3, i32 noundef %4) #0 {
  %6 = alloca ptr, align 8
  %7 = alloca i32, align 4
  %8 = alloca i32, align 4
  %9 = alloca i32, align 4
  %10 = alloca i32, align 4
  %11 = alloca i32, align 4
  store ptr %0, ptr %6, align 8, !tbaa !62
  store i32 %1, ptr %7, align 4, !tbaa !79
  store i32 %2, ptr %8, align 4, !tbaa !79
  store i32 %3, ptr %9, align 4, !tbaa !79
  store i32 %4, ptr %10, align 4, !tbaa !79
  br label %12

12:                                               ; preds = %32, %5
  %13 = load i32, ptr %7, align 4, !tbaa !79
  %14 = icmp ne i32 %13, -1
  br i1 %14, label %15, label %34

15:                                               ; preds = %12
  call void @llvm.lifetime.start.p0(i64 4, ptr %11) #11
  %16 = load ptr, ptr %6, align 8, !tbaa !62
  %17 = load i32, ptr %7, align 4, !tbaa !79
  %18 = call i32 @jmp_next(ptr noundef %16, i32 noundef %17)
  store i32 %18, ptr %11, align 4, !tbaa !79
  %19 = load ptr, ptr %6, align 8, !tbaa !62
  %20 = load i32, ptr %7, align 4, !tbaa !79
  %21 = load i32, ptr %9, align 4, !tbaa !79
  %22 = call i32 @jmp_patchtestreg(ptr noundef %19, i32 noundef %20, i32 noundef %21)
  %23 = icmp ne i32 %22, 0
  br i1 %23, label %24, label %28

24:                                               ; preds = %15
  %25 = load ptr, ptr %6, align 8, !tbaa !62
  %26 = load i32, ptr %7, align 4, !tbaa !79
  %27 = load i32, ptr %8, align 4, !tbaa !79
  call void @jmp_patchins(ptr noundef %25, i32 noundef %26, i32 noundef %27)
  br label %32

28:                                               ; preds = %15
  %29 = load ptr, ptr %6, align 8, !tbaa !62
  %30 = load i32, ptr %7, align 4, !tbaa !79
  %31 = load i32, ptr %10, align 4, !tbaa !79
  call void @jmp_patchins(ptr noundef %29, i32 noundef %30, i32 noundef %31)
  br label %32

32:                                               ; preds = %28, %24
  %33 = load i32, ptr %11, align 4, !tbaa !79
  store i32 %33, ptr %7, align 4, !tbaa !79
  call void @llvm.lifetime.end.p0(i64 4, ptr %11) #11
  br label %12, !llvm.loop !106

34:                                               ; preds = %12
  ret void
}

; Function Attrs: nounwind uwtable
define internal i32 @bcemit_INS(ptr noundef %0, i32 noundef %1) #0 {
  %3 = alloca ptr, align 8
  %4 = alloca i32, align 4
  %5 = alloca i32, align 4
  %6 = alloca ptr, align 8
  %7 = alloca i64, align 8
  store ptr %0, ptr %3, align 8, !tbaa !62
  store i32 %1, ptr %4, align 4, !tbaa !79
  call void @llvm.lifetime.start.p0(i64 4, ptr %5) #11
  %8 = load ptr, ptr %3, align 8, !tbaa !62
  %9 = getelementptr inbounds nuw %struct.FuncState, ptr %8, i32 0, i32 5
  %10 = load i32, ptr %9, align 8, !tbaa !68
  store i32 %10, ptr %5, align 4, !tbaa !79
  call void @llvm.lifetime.start.p0(i64 8, ptr %6) #11
  %11 = load ptr, ptr %3, align 8, !tbaa !62
  %12 = getelementptr inbounds nuw %struct.FuncState, ptr %11, i32 0, i32 1
  %13 = load ptr, ptr %12, align 8, !tbaa !64
  store ptr %13, ptr %6, align 8, !tbaa !4
  %14 = load ptr, ptr %3, align 8, !tbaa !62
  %15 = load ptr, ptr %3, align 8, !tbaa !62
  %16 = getelementptr inbounds nuw %struct.FuncState, ptr %15, i32 0, i32 7
  %17 = load i32, ptr %16, align 8, !tbaa !70
  %18 = load i32, ptr %5, align 4, !tbaa !79
  %19 = load i32, ptr %5, align 4, !tbaa !79
  call void @jmp_patchval(ptr noundef %14, i32 noundef %17, i32 noundef %18, i32 noundef 255, i32 noundef %19)
  %20 = load ptr, ptr %3, align 8, !tbaa !62
  %21 = getelementptr inbounds nuw %struct.FuncState, ptr %20, i32 0, i32 7
  store i32 -1, ptr %21, align 8, !tbaa !70
  %22 = load i32, ptr %5, align 4, !tbaa !79
  %23 = load ptr, ptr %3, align 8, !tbaa !62
  %24 = getelementptr inbounds nuw %struct.FuncState, ptr %23, i32 0, i32 14
  %25 = load i32, ptr %24, align 8, !tbaa !56
  %26 = icmp uge i32 %22, %25
  %27 = xor i1 %26, true
  %28 = xor i1 %27, true
  %29 = zext i1 %28 to i32
  %30 = sext i32 %29 to i64
  %31 = call i64 @llvm.expect.i64(i64 %30, i64 0)
  %32 = icmp ne i64 %31, 0
  br i1 %32, label %33, label %78

33:                                               ; preds = %2
  call void @llvm.lifetime.start.p0(i64 8, ptr %7) #11
  %34 = load ptr, ptr %3, align 8, !tbaa !62
  %35 = getelementptr inbounds nuw %struct.FuncState, ptr %34, i32 0, i32 13
  %36 = load ptr, ptr %35, align 8, !tbaa !55
  %37 = load ptr, ptr %6, align 8, !tbaa !4
  %38 = getelementptr inbounds nuw %struct.LexState, ptr %37, i32 0, i32 20
  %39 = load ptr, ptr %38, align 8, !tbaa !85
  %40 = ptrtoint ptr %36 to i64
  %41 = ptrtoint ptr %39 to i64
  %42 = sub i64 %40, %41
  %43 = sdiv exact i64 %42, 8
  store i64 %43, ptr %7, align 8, !tbaa !11
  %44 = load ptr, ptr %6, align 8, !tbaa !4
  %45 = getelementptr inbounds nuw %struct.LexState, ptr %44, i32 0, i32 21
  %46 = load i32, ptr %45, align 8, !tbaa !86
  %47 = icmp uge i32 %46, 67108864
  br i1 %47, label %48, label %50

48:                                               ; preds = %33
  %49 = load ptr, ptr %3, align 8, !tbaa !62
  call void @err_limit(ptr noundef %49, i32 noundef 67108864, ptr noundef @.str.1) #13
  unreachable

50:                                               ; preds = %33
  %51 = load ptr, ptr %3, align 8, !tbaa !62
  %52 = getelementptr inbounds nuw %struct.FuncState, ptr %51, i32 0, i32 2
  %53 = load ptr, ptr %52, align 8, !tbaa !67
  %54 = load ptr, ptr %6, align 8, !tbaa !4
  %55 = getelementptr inbounds nuw %struct.LexState, ptr %54, i32 0, i32 20
  %56 = load ptr, ptr %55, align 8, !tbaa !85
  %57 = load ptr, ptr %6, align 8, !tbaa !4
  %58 = getelementptr inbounds nuw %struct.LexState, ptr %57, i32 0, i32 21
  %59 = call ptr @lj_mem_grow(ptr noundef %53, ptr noundef %56, ptr noundef %58, i32 noundef 67108864, i32 noundef 8)
  %60 = load ptr, ptr %6, align 8, !tbaa !4
  %61 = getelementptr inbounds nuw %struct.LexState, ptr %60, i32 0, i32 20
  store ptr %59, ptr %61, align 8, !tbaa !85
  %62 = load ptr, ptr %6, align 8, !tbaa !4
  %63 = getelementptr inbounds nuw %struct.LexState, ptr %62, i32 0, i32 21
  %64 = load i32, ptr %63, align 8, !tbaa !86
  %65 = zext i32 %64 to i64
  %66 = load i64, ptr %7, align 8, !tbaa !11
  %67 = sub nsw i64 %65, %66
  %68 = trunc i64 %67 to i32
  %69 = load ptr, ptr %3, align 8, !tbaa !62
  %70 = getelementptr inbounds nuw %struct.FuncState, ptr %69, i32 0, i32 14
  store i32 %68, ptr %70, align 8, !tbaa !56
  %71 = load ptr, ptr %6, align 8, !tbaa !4
  %72 = getelementptr inbounds nuw %struct.LexState, ptr %71, i32 0, i32 20
  %73 = load ptr, ptr %72, align 8, !tbaa !85
  %74 = load i64, ptr %7, align 8, !tbaa !11
  %75 = getelementptr inbounds %struct.BCInsLine, ptr %73, i64 %74
  %76 = load ptr, ptr %3, align 8, !tbaa !62
  %77 = getelementptr inbounds nuw %struct.FuncState, ptr %76, i32 0, i32 13
  store ptr %75, ptr %77, align 8, !tbaa !55
  call void @llvm.lifetime.end.p0(i64 8, ptr %7) #11
  br label %78

78:                                               ; preds = %50, %2
  %79 = load i32, ptr %4, align 4, !tbaa !79
  %80 = load ptr, ptr %3, align 8, !tbaa !62
  %81 = getelementptr inbounds nuw %struct.FuncState, ptr %80, i32 0, i32 13
  %82 = load ptr, ptr %81, align 8, !tbaa !55
  %83 = load i32, ptr %5, align 4, !tbaa !79
  %84 = zext i32 %83 to i64
  %85 = getelementptr inbounds nuw %struct.BCInsLine, ptr %82, i64 %84
  %86 = getelementptr inbounds nuw %struct.BCInsLine, ptr %85, i32 0, i32 0
  store i32 %79, ptr %86, align 4, !tbaa !87
  %87 = load ptr, ptr %6, align 8, !tbaa !4
  %88 = getelementptr inbounds nuw %struct.LexState, ptr %87, i32 0, i32 13
  %89 = load i32, ptr %88, align 4, !tbaa !89
  %90 = load ptr, ptr %3, align 8, !tbaa !62
  %91 = getelementptr inbounds nuw %struct.FuncState, ptr %90, i32 0, i32 13
  %92 = load ptr, ptr %91, align 8, !tbaa !55
  %93 = load i32, ptr %5, align 4, !tbaa !79
  %94 = zext i32 %93 to i64
  %95 = getelementptr inbounds nuw %struct.BCInsLine, ptr %92, i64 %94
  %96 = getelementptr inbounds nuw %struct.BCInsLine, ptr %95, i32 0, i32 1
  store i32 %89, ptr %96, align 4, !tbaa !90
  %97 = load i32, ptr %5, align 4, !tbaa !79
  %98 = add i32 %97, 1
  %99 = load ptr, ptr %3, align 8, !tbaa !62
  %100 = getelementptr inbounds nuw %struct.FuncState, ptr %99, i32 0, i32 5
  store i32 %98, ptr %100, align 8, !tbaa !68
  %101 = load i32, ptr %5, align 4, !tbaa !79
  call void @llvm.lifetime.end.p0(i64 8, ptr %6) #11
  call void @llvm.lifetime.end.p0(i64 4, ptr %5) #11
  ret i32 %101
}