; Function Attrs: nounwind uwtable
define internal fastcc i32 @bcemit_INS(ptr noundef captures(none) %0, i32 noundef %1) unnamed_addr #0 {
  %3 = getelementptr inbounds nuw i8, ptr %0, i64 40
  %4 = load i32, ptr %3, align 8, !tbaa !51
  %5 = getelementptr inbounds nuw i8, ptr %0, i64 8
  %6 = load ptr, ptr %5, align 8, !tbaa !47
  %7 = getelementptr inbounds nuw i8, ptr %0, i64 48
  %8 = load i32, ptr %7, align 8, !tbaa !53
  %.not19.i = icmp eq i32 %8, -1
  br i1 %.not19.i, label %jmp_patchval.exit, label %.lr.ph.i

.lr.ph.i:                                         ; preds = %2
  %9 = getelementptr i8, ptr %0, i64 72
  %.val.pre.i = load ptr, ptr %9, align 8, !tbaa !67
  br label %10

10:                                               ; preds = %jmp_patchins.exit16.i, %.lr.ph.i
  %11 = phi ptr [ %.val.pre.i, %.lr.ph.i ], [ %47, %jmp_patchins.exit16.i ]
  %.020.i = phi i32 [ %8, %.lr.ph.i ], [ %21, %jmp_patchins.exit16.i ]
  %12 = zext i32 %.020.i to i64
  %13 = getelementptr inbounds nuw %struct.BCInsLine, ptr %11, i64 %12
  %14 = load i32, ptr %13, align 4, !tbaa !68
  %15 = lshr i32 %14, 16
  %16 = zext nneg i32 %15 to i64
  %17 = add nsw i64 %16, -32768
  %18 = icmp eq i64 %17, -1
  %19 = add nuw nsw i64 %12, 1
  %20 = add nsw i64 %19, %17
  %21 = trunc i64 %20 to i32
  %22 = tail call i32 @llvm.usub.sat.i32(i32 range(i32 0, -1) %.020.i, i32 1)
  %23 = zext i32 %22 to i64
  %24 = getelementptr inbounds nuw %struct.BCInsLine, ptr %11, i64 %23
  %25 = load i32, ptr %24, align 4, !tbaa !68
  %26 = and i32 %25, 254
  %or.cond.i.i = icmp eq i32 %26, 12
  br i1 %or.cond.i.i, label %27, label %31

27:                                               ; preds = %10
  %28 = trunc i32 %25 to i8
  %29 = or disjoint i8 %28, 2
  store i8 %29, ptr %24, align 4, !tbaa !25
  %30 = getelementptr inbounds nuw i8, ptr %24, i64 1
  store i8 0, ptr %30, align 1, !tbaa !25
  br label %37

31:                                               ; preds = %10
  %32 = and i32 %25, 65280
  %33 = icmp eq i32 %32, 65280
  br i1 %33, label %34, label %jmp_patchtestreg.exit.i

34:                                               ; preds = %31
  %35 = and i32 %14, 65280
  %36 = or disjoint i32 %35, -2147483560
  store i32 %36, ptr %24, align 4, !tbaa !68
  br label %37

37:                                               ; preds = %34, %27
  %reass.sub.i.i = sub i32 %4, %.020.i
  %38 = add i32 %reass.sub.i.i, 32767
  %39 = icmp ugt i32 %38, 65535
  br i1 %39, label %40, label %jmp_patchins.exit.i

40:                                               ; preds = %37
  %41 = load ptr, ptr %5, align 8, !tbaa !47
  tail call fastcc void @err_syntax(ptr noundef %41, i32 noundef 2399) #13
  unreachable

jmp_patchins.exit.i:                              ; preds = %37
  %42 = load ptr, ptr %9, align 8, !tbaa !67
  br label %jmp_patchins.exit16.i

jmp_patchtestreg.exit.i:                          ; preds = %31
  %reass.sub.i15.i = sub i32 %4, %.020.i
  %43 = add i32 %reass.sub.i15.i, 32767
  %44 = icmp ugt i32 %43, 65535
  br i1 %44, label %45, label %jmp_patchins.exit16.i

45:                                               ; preds = %jmp_patchtestreg.exit.i
  %46 = load ptr, ptr %5, align 8, !tbaa !47
  tail call fastcc void @err_syntax(ptr noundef %46, i32 noundef 2399) #13
  unreachable

jmp_patchins.exit16.i:                            ; preds = %jmp_patchtestreg.exit.i, %jmp_patchins.exit.i
  %.sink25.i = phi i32 [ %38, %jmp_patchins.exit.i ], [ %43, %jmp_patchtestreg.exit.i ]
  %47 = phi ptr [ %42, %jmp_patchins.exit.i ], [ %11, %jmp_patchtestreg.exit.i ]
  %48 = getelementptr inbounds nuw %struct.BCInsLine, ptr %47, i64 %12
  %49 = trunc nuw i32 %.sink25.i to i16
  %50 = getelementptr inbounds nuw i8, ptr %48, i64 2
  store i16 %49, ptr %50, align 2, !tbaa !70
  %.not26.i = icmp eq i32 %21, -1
  %.not.i = select i1 %18, i1 true, i1 %.not26.i
  br i1 %.not.i, label %jmp_patchval.exit, label %10, !llvm.loop !72

jmp_patchval.exit:                                ; preds = %jmp_patchins.exit16.i, %2
  store i32 -1, ptr %7, align 8, !tbaa !53
  %51 = getelementptr inbounds nuw i8, ptr %0, i64 80
  %52 = load i32, ptr %51, align 8, !tbaa !74
  %.not = icmp ult i32 %4, %52
  br i1 %.not, label %jmp_patchval.exit._crit_edge, label %53, !prof !40

jmp_patchval.exit._crit_edge:                     ; preds = %jmp_patchval.exit
  %.phi.trans.insert = getelementptr inbounds nuw i8, ptr %0, i64 72
  %.pre = load ptr, ptr %.phi.trans.insert, align 8, !tbaa !67
  br label %74

53:                                               ; preds = %jmp_patchval.exit
  %54 = getelementptr inbounds nuw i8, ptr %6, i64 168
  %55 = load i32, ptr %54, align 8, !tbaa !75
  %56 = icmp ugt i32 %55, 67108863
  br i1 %56, label %57, label %58

57:                                               ; preds = %53
  tail call fastcc void @err_limit(ptr noundef nonnull %0, i32 noundef 67108864, ptr noundef nonnull @.str.1) #13
  unreachable

58:                                               ; preds = %53
  %59 = getelementptr inbounds nuw i8, ptr %0, i64 72
  %60 = load ptr, ptr %59, align 8, !tbaa !67
  %61 = ptrtoint ptr %60 to i64
  %62 = getelementptr inbounds nuw i8, ptr %6, i64 160
  %63 = load ptr, ptr %62, align 8, !tbaa !76
  %64 = ptrtoint ptr %63 to i64
  %65 = sub i64 %61, %64
  %66 = lshr exact i64 %65, 3
  %67 = getelementptr inbounds nuw i8, ptr %0, i64 16
  %68 = load ptr, ptr %67, align 8, !tbaa !50
  %69 = tail call ptr @lj_mem_grow(ptr noundef %68, ptr noundef %63, ptr noundef nonnull %54, i32 noundef 67108864, i32 noundef 8) #11
  store ptr %69, ptr %62, align 8, !tbaa !76
  %70 = load i32, ptr %54, align 8, !tbaa !75
  %71 = trunc i64 %66 to i32
  %72 = sub i32 %70, %71
  store i32 %72, ptr %51, align 8, !tbaa !74
  %73 = getelementptr inbounds i8, ptr %69, i64 %65
  store ptr %73, ptr %59, align 8, !tbaa !67
  br label %74

74:                                               ; preds = %jmp_patchval.exit._crit_edge, %58
  %75 = phi ptr [ %.pre, %jmp_patchval.exit._crit_edge ], [ %73, %58 ]
  %76 = zext i32 %4 to i64
  %77 = getelementptr inbounds nuw %struct.BCInsLine, ptr %75, i64 %76
  store i32 %1, ptr %77, align 4, !tbaa !68
  %78 = getelementptr inbounds nuw i8, ptr %6, i64 116
  %79 = load i32, ptr %78, align 4, !tbaa !77
  %80 = getelementptr inbounds nuw %struct.BCInsLine, ptr %75, i64 %76, i32 1
  store i32 %79, ptr %80, align 4, !tbaa !78
  %81 = add i32 %4, 1
  store i32 %81, ptr %3, align 8, !tbaa !51
  ret i32 %4
}